target datalayout = "e-m:e-p270:32:32-p271:32:32-p272:64:64-i64:64-i128:128-f80:128-n8:16:32:64-S128"
target triple = "x86_64-pc-linux-gnu"

%class.cmParseJacocoCoverage = type { %"class.std::__cxx11::basic_string", %"class.std::__cxx11::basic_string", %"class.std::__cxx11::basic_string", %"class.std::__cxx11::basic_string", %"class.std::map", ptr, ptr }
%"class.std::__cxx11::basic_string" = type { %"struct.std::__cxx11::basic_string<char>::_Alloc_hider", i64, %union.anon }
%"struct.std::__cxx11::basic_string<char>::_Alloc_hider" = type { ptr }
%union.anon = type { i64, [8 x i8] }
%"class.std::map" = type { %"class.std::_Rb_tree" }
%"class.std::_Rb_tree" = type { %"struct.std::_Rb_tree<std::__cxx11::basic_string<char>, std::pair<const std::__cxx11::basic_string<char>, std::__cxx11::basic_string<char>>, std::_Select1st<std::pair<const std::__cxx11::basic_string<char>, std::__cxx11::basic_string<char>>>, std::less<std::__cxx11::basic_string<char>>>::_Rb_tree_impl" }
%"struct.std::_Rb_tree<std::__cxx11::basic_string<char>, std::pair<const std::__cxx11::basic_string<char>, std::__cxx11::basic_string<char>>, std::_Select1st<std::pair<const std::__cxx11::basic_string<char>, std::__cxx11::basic_string<char>>>, std::less<std::__cxx11::basic_string<char>>>::_Rb_tree_impl" = type { %"struct.std::_Rb_tree_key_compare", %"struct.std::_Rb_tree_header" }
%"struct.std::_Rb_tree_key_compare" = type { %"struct.std::less" }
%"struct.std::less" = type { i8 }
%"struct.std::_Rb_tree_header" = type { %"struct.std::_Rb_tree_node_base", i64 }
%"struct.std::_Rb_tree_node_base" = type { i32, ptr, ptr, ptr }
%"class.cmParseJacocoCoverage::XMLParser" = type { %class.cmXMLParser, %"class.std::__cxx11::basic_string", %"class.std::__cxx11::basic_string", %"class.std::__cxx11::basic_string", ptr, ptr }
%class.cmXMLParser = type { ptr, i32, ptr, ptr, ptr }

; Function Attrs: mustprogress uwtable
define linkonce_odr dso_local void @_ZN21cmParseJacocoCoverage9XMLParserC2EP7cmCTestR31cmCTestCoverageHandlerContainer(ptr noundef nonnull align 8 dereferenceable(152) %0, ptr noundef %1, ptr noundef nonnull align 8 dereferenceable(129) %2) unnamed_addr #5 comdat align 2 {
  %4 = alloca ptr, align 8
  %5 = alloca ptr, align 8
  %6 = alloca ptr, align 8
  store ptr %0, ptr %4, align 8
  store ptr %1, ptr %5, align 8
  store ptr %2, ptr %6, align 8
  %7 = load ptr, ptr %4, align 8
  call void @_ZN11cmXMLParserC2Ev(ptr noundef nonnull align 8 dereferenceable(40) %7)
  store ptr getelementptr inbounds ({ [18 x ptr] }, ptr @_ZTVN21cmParseJacocoCoverage9XMLParserE, i32 0, i32 0, i32 2), ptr %7, align 8
  %8 = getelementptr inbounds %"class.cmParseJacocoCoverage::XMLParser", ptr %7, i32 0, i32 1
  call void @_ZNSt7__cxx1112basic_stringIcSt11char_traitsIcESaIcEEC1Ev(ptr noundef nonnull align 8 dereferenceable(32) %8) #3
  %9 = getelementptr inbounds %"class.cmParseJacocoCoverage::XMLParser", ptr %7, i32 0, i32 2
  call void @_ZNSt7__cxx1112basic_stringIcSt11char_traitsIcESaIcEEC1Ev(ptr noundef nonnull align 8 dereferenceable(32) %9) #3
  %10 = getelementptr inbounds %"class.cmParseJacocoCoverage::XMLParser", ptr %7, i32 0, i32 3
  call void @_ZNSt7__cxx1112basic_stringIcSt11char_traitsIcESaIcEEC1Ev(ptr noundef nonnull align 8 dereferenceable(32) %10) #3
  %11 = getelementptr inbounds %"class.cmParseJacocoCoverage::XMLParser", ptr %7, i32 0, i32 4
  %12 = load ptr, ptr %5, align 8
  store ptr %12, ptr %11, align 8
  %13 = getelementptr inbounds %"class.cmParseJacocoCoverage::XMLParser", ptr %7, i32 0, i32 5
  %14 = load ptr, ptr %6, align 8
  store ptr %14, ptr %13, align 8
  ret void
}

; Function Attrs: mustprogress uwtable
define dso_local noundef zeroext i1 @_ZN21cmParseJacocoCoverage13ReadJacocoXMLEPKc(ptr noundef nonnull align 8 dereferenceable(192) %0, ptr noundef %1) #5 align 2 personality ptr @__gxx_personality_v0 {
  %3 = alloca ptr, align 8
  %4 = alloca ptr, align 8
  %5 = alloca %"class.cmParseJacocoCoverage::XMLParser", align 8
  %6 = alloca ptr, align 8
  %7 = alloca i32, align 4
  store ptr %0, ptr %3, align 8
  store ptr %1, ptr %4, align 8
  %8 = load ptr, ptr %3, align 8
  %9 = getelementptr inbounds %class.cmParseJacocoCoverage, ptr %8, i32 0, i32 6
  %10 = load ptr, ptr %9, align 8
  %11 = getelementptr inbounds %class.cmParseJacocoCoverage, ptr %8, i32 0, i32 5
  %12 = load ptr, ptr %11, align 8
  call void @_ZN21cmParseJacocoCoverage9XMLParserC2EP7cmCTestR31cmCTestCoverageHandlerContainer(ptr noundef nonnull align 8 dereferenceable(152) %5, ptr noundef %10, ptr noundef nonnull align 8 dereferenceable(129) %12)
  %13 = load ptr, ptr %4, align 8
  %14 = invoke noundef i32 @_ZN11cmXMLParser9ParseFileEPKc(ptr noundef nonnull align 8 dereferenceable(40) %5, ptr noundef %13)
          to label %15 unwind label %16

15:                                               ; preds = %2
  call void @_ZN21cmParseJacocoCoverage9XMLParserD2Ev(ptr noundef nonnull align 8 dereferenceable(152) %5) #3
  ret i1 true

16:                                               ; preds = %2
  %17 = landingpad { ptr, i32 }
          cleanup
  %18 = extractvalue { ptr, i32 } %17, 0
  store ptr %18, ptr %6, align 8
  %19 = extractvalue { ptr, i32 } %17, 1
  store i32 %19, ptr %7, align 4
  call void @_ZN21cmParseJacocoCoverage9XMLParserD2Ev(ptr noundef nonnull align 8 dereferenceable(152) %5) #3
  br label %20

20:                                               ; preds = %16
  %21 = load ptr, ptr %6, align 8
  %22 = load i32, ptr %7, align 4
  %23 = insertvalue { ptr, i32 } poison, ptr %21, 0
  %24 = insertvalue { ptr, i32 } %23, i32 %22, 1
  resume { ptr, i32 } %24
}