; Function Attrs: mustprogress uwtable
define dso_local noundef zeroext i1 @_ZN21cmParseJacocoCoverage13ReadJacocoXMLEPKc(ptr nocapture noundef nonnull readonly align 8 dereferenceable(192) %0, ptr noundef %1) local_unnamed_addr #4 align 2 personality ptr @__gxx_personality_v0 {
  %3 = alloca %"class.cmParseJacocoCoverage::XMLParser", align 8
  %4 = getelementptr inbounds i8, ptr %0, i64 176
  %5 = getelementptr inbounds i8, ptr %3, i64 40
  %6 = getelementptr inbounds i8, ptr %3, i64 72
  %7 = getelementptr inbounds i8, ptr %3, i64 104
  %8 = getelementptr inbounds i8, ptr %3, i64 136
  %9 = load <2 x ptr>, ptr %4, align 8
  call void @_ZN11cmXMLParserC2Ev(ptr noundef nonnull align 8 dereferenceable(40) %3)
  store ptr getelementptr inbounds ({ [18 x ptr] }, ptr @_ZTVN21cmParseJacocoCoverage9XMLParserE, i64 0, i32 0, i64 2), ptr %3, align 8
  call void @_ZNSt7__cxx1112basic_stringIcSt11char_traitsIcESaIcEEC1Ev(ptr noundef nonnull align 8 dereferenceable(32) %5) #17
  call void @_ZNSt7__cxx1112basic_stringIcSt11char_traitsIcESaIcEEC1Ev(ptr noundef nonnull align 8 dereferenceable(32) %6) #17
  call void @_ZNSt7__cxx1112basic_stringIcSt11char_traitsIcESaIcEEC1Ev(ptr noundef nonnull align 8 dereferenceable(32) %7) #17
  %10 = shufflevector <2 x ptr> %9, <2 x ptr> poison, <2 x i32> <i32 1, i32 0>
  store <2 x ptr> %10, ptr %8, align 8
  %11 = invoke noundef i32 @_ZN11cmXMLParser9ParseFileEPKc(ptr noundef nonnull align 8 dereferenceable(40) %3, ptr noundef %1)
          to label %12 unwind label %13

12:                                               ; preds = %2
  store ptr getelementptr inbounds ({ [18 x ptr] }, ptr @_ZTVN21cmParseJacocoCoverage9XMLParserE, i64 0, i32 0, i64 2), ptr %3, align 8
  call void @_ZNSt7__cxx1112basic_stringIcSt11char_traitsIcESaIcEED1Ev(ptr noundef nonnull align 8 dereferenceable(32) %7) #17
  call void @_ZNSt7__cxx1112basic_stringIcSt11char_traitsIcESaIcEED1Ev(ptr noundef nonnull align 8 dereferenceable(32) %6) #17
  call void @_ZNSt7__cxx1112basic_stringIcSt11char_traitsIcESaIcEED1Ev(ptr noundef nonnull align 8 dereferenceable(32) %5) #17
  call void @_ZN11cmXMLParserD2Ev(ptr noundef nonnull align 8 dereferenceable(40) %3) #17
  ret i1 true

13:                                               ; preds = %2
  %14 = landingpad { ptr, i32 }
          cleanup
  call void @_ZN21cmParseJacocoCoverage9XMLParserD2Ev(ptr noundef nonnull align 8 dereferenceable(152) %3) #17
  resume { ptr, i32 } %14
}